; Function Attrs: mustprogress nounwind uwtable
define internal fastcc void @_ZN12_GLOBAL__N_111DeclPrinter20VisitOMPRequiresDeclEPN5clang15OMPRequiresDeclE(ptr noundef nonnull align 8 dereferenceable(37) %0, ptr nocapture noundef readonly %1) unnamed_addr #0 align 2 {
  %3 = alloca %"class.clang::OMPClausePrinter", align 8
  %4 = load ptr, ptr %0, align 8
  %5 = getelementptr inbounds nuw i8, ptr %4, i64 24
  %6 = load ptr, ptr %5, align 8
  %7 = getelementptr inbounds nuw i8, ptr %4, i64 32
  %8 = load ptr, ptr %7, align 8
  %9 = ptrtoint ptr %6 to i64
  %10 = ptrtoint ptr %8 to i64
  %11 = sub i64 %9, %10
  %12 = icmp ult i64 %11, 21
  br i1 %12, label %13, label %15

13:                                               ; preds = %2
  %14 = tail call noundef nonnull align 8 dereferenceable(48) ptr @_ZN4llvm11raw_ostream5writeEPKcm(ptr noundef nonnull align 8 dereferenceable(48) %4, ptr noundef nonnull @.str.31, i64 noundef 21) #14
  br label %_ZN4llvm11raw_ostreamlsEPKc.exit

15:                                               ; preds = %2
  tail call void @llvm.memcpy.p0.p0.i64(ptr noundef nonnull align 1 dereferenceable(21) %8, ptr noundef nonnull align 1 dereferenceable(21) @.str.31, i64 21, i1 false)
  %16 = load ptr, ptr %7, align 8
  %17 = getelementptr inbounds i8, ptr %16, i64 21
  store ptr %17, ptr %7, align 8
  br label %_ZN4llvm11raw_ostreamlsEPKc.exit

_ZN4llvm11raw_ostreamlsEPKc.exit:                 ; preds = %13, %15
  %18 = getelementptr inbounds nuw i8, ptr %1, i64 40
  %19 = load ptr, ptr %18, align 8
  %20 = load i32, ptr %19, align 8
  %21 = icmp eq i32 %20, 0
  br i1 %21, label %.loopexit, label %.lr.ph.preheader

.lr.ph.preheader:                                 ; preds = %_ZN4llvm11raw_ostreamlsEPKc.exit
  %22 = load ptr, ptr %0, align 8
  %23 = getelementptr inbounds nuw i8, ptr %0, i64 8
  store ptr %22, ptr %3, align 8
  %24 = getelementptr inbounds nuw i8, ptr %3, i64 8
  store ptr %23, ptr %24, align 8
  %25 = zext i32 %20 to i64
  %.idx = shl nuw nsw i64 %25, 3
  %26 = getelementptr inbounds i8, ptr %19, i64 %.idx
  %.ptr10 = getelementptr inbounds i8, ptr %26, i64 16
  %.ptr = getelementptr inbounds i8, ptr %19, i64 16
  br label %.lr.ph

.lr.ph:                                           ; preds = %.lr.ph.preheader, %.lr.ph
  %.09 = phi ptr [ %28, %.lr.ph ], [ %.ptr, %.lr.ph.preheader ]
  %27 = load ptr, ptr %.09, align 8
  call void @_ZN5clang20OMPClauseVisitorBaseINS_16OMPClausePrinterESt13add_pointer_tvE5VisitEPNS_9OMPClauseE(ptr noundef nonnull align 1 dereferenceable(1) %3, ptr noundef %27)
  %28 = getelementptr inbounds i8, ptr %.09, i64 8
  %.not = icmp eq ptr %28, %.ptr10
  br i1 %.not, label %.loopexit, label %.lr.ph, !llvm.loop !17

.loopexit:                                        ; preds = %.lr.ph, %_ZN4llvm11raw_ostreamlsEPKc.exit
  ret void
}